target datalayout = "e-m:e-p270:32:32-p271:32:32-p272:64:64-i64:64-i128:128-f80:128-n8:16:32:64-S128"
target triple = "x86_64-pc-linux-gnu"

@exponent_group_tab = internal global [2 x [3 x [256 x i8]]] zeroinitializer, align 16

; Function Attrs: cold nounwind optsize uwtable
define internal void @exponent_init() #4 {
  %1 = alloca i32, align 4
  %2 = alloca i32, align 4
  %3 = alloca i32, align 4
  call void @llvm.lifetime.start.p0(i64 4, ptr %1) #12
  call void @llvm.lifetime.start.p0(i64 4, ptr %2) #12
  call void @llvm.lifetime.start.p0(i64 4, ptr %3) #12
  store i32 0, ptr %1, align 4, !tbaa !9
  br label %4

4:                                                ; preds = %41, %0
  %5 = load i32, ptr %1, align 4, !tbaa !9
  %6 = icmp sle i32 %5, 2
  br i1 %6, label %7, label %44

7:                                                ; preds = %4
  %8 = load i32, ptr %1, align 4, !tbaa !9
  %9 = shl i32 3, %8
  store i32 %9, ptr %3, align 4, !tbaa !9
  store i32 12, ptr %2, align 4, !tbaa !9
  br label %10

10:                                               ; preds = %37, %7
  %11 = load i32, ptr %2, align 4, !tbaa !9
  %12 = icmp slt i32 %11, 256
  br i1 %12, label %13, label %40

13:                                               ; preds = %10
  %14 = load i32, ptr %2, align 4, !tbaa !9
  %15 = load i32, ptr %3, align 4, !tbaa !9
  %16 = add nsw i32 %14, %15
  %17 = sub nsw i32 %16, 4
  %18 = load i32, ptr %3, align 4, !tbaa !9
  %19 = sdiv i32 %17, %18
  %20 = trunc i32 %19 to i8
  %21 = load i32, ptr %1, align 4, !tbaa !9
  %22 = sext i32 %21 to i64
  %23 = getelementptr inbounds [3 x [256 x i8]], ptr @exponent_group_tab, i64 0, i64 %22
  %24 = load i32, ptr %2, align 4, !tbaa !9
  %25 = sext i32 %24 to i64
  %26 = getelementptr inbounds [256 x i8], ptr %23, i64 0, i64 %25
  store i8 %20, ptr %26, align 1, !tbaa !31
  %27 = load i32, ptr %2, align 4, !tbaa !9
  %28 = load i32, ptr %3, align 4, !tbaa !9
  %29 = sdiv i32 %27, %28
  %30 = trunc i32 %29 to i8
  %31 = load i32, ptr %1, align 4, !tbaa !9
  %32 = sext i32 %31 to i64
  %33 = getelementptr inbounds [3 x [256 x i8]], ptr getelementptr inbounds ([2 x [3 x [256 x i8]]], ptr @exponent_group_tab, i64 0, i64 1), i64 0, i64 %32
  %34 = load i32, ptr %2, align 4, !tbaa !9
  %35 = sext i32 %34 to i64
  %36 = getelementptr inbounds [256 x i8], ptr %33, i64 0, i64 %35
  store i8 %30, ptr %36, align 1, !tbaa !31
  br label %37

37:                                               ; preds = %13
  %38 = load i32, ptr %2, align 4, !tbaa !9
  %39 = add nsw i32 %38, 1
  store i32 %39, ptr %2, align 4, !tbaa !9
  br label %10, !llvm.loop !205

40:                                               ; preds = %10
  br label %41

41:                                               ; preds = %40
  %42 = load i32, ptr %1, align 4, !tbaa !9
  %43 = add nsw i32 %42, 1
  store i32 %43, ptr %1, align 4, !tbaa !9
  br label %4, !llvm.loop !206

44:                                               ; preds = %4
  store i8 2, ptr getelementptr inbounds ([256 x i8], ptr @exponent_group_tab, i64 0, i64 7), align 1, !tbaa !31
  call void @llvm.lifetime.end.p0(i64 4, ptr %3) #12
  call void @llvm.lifetime.end.p0(i64 4, ptr %2) #12
  call void @llvm.lifetime.end.p0(i64 4, ptr %1) #12
  ret void
}