; Function Attrs: cold nofree norecurse nosync nounwind optsize memory(write, argmem: none, inaccessiblemem: none) uwtable
define internal void @exponent_init() #7 {
  br label %1

1:                                                ; preds = %0, %15
  %indvars.iv18 = phi i64 [ 0, %0 ], [ %indvars.iv.next19, %15 ]
  %2 = trunc nuw nsw i64 %indvars.iv18 to i32
  %3 = shl nuw nsw i32 3, %2
  %4 = add nsw i32 %3, -4
  br label %5

5:                                                ; preds = %1, %5
  %indvars.iv = phi i64 [ 12, %1 ], [ %indvars.iv.next, %5 ]
  %6 = trunc i64 %indvars.iv to i32
  %7 = add i32 %4, %6
  %8 = sdiv i32 %7, %3
  %9 = trunc i32 %8 to i8
  %10 = getelementptr inbounds nuw [3 x [256 x i8]], ptr @exponent_group_tab, i64 0, i64 %indvars.iv18, i64 %indvars.iv
  store i8 %9, ptr %10, align 1, !tbaa !26
  %11 = trunc nuw nsw i64 %indvars.iv to i32
  %12 = udiv i32 %11, %3
  %13 = trunc nuw i32 %12 to i8
  %14 = getelementptr inbounds nuw [3 x [256 x i8]], ptr getelementptr inbounds nuw (i8, ptr @exponent_group_tab, i64 768), i64 0, i64 %indvars.iv18, i64 %indvars.iv
  store i8 %13, ptr %14, align 1, !tbaa !26
  %indvars.iv.next = add nuw nsw i64 %indvars.iv, 1
  %exitcond.not = icmp eq i64 %indvars.iv.next, 256
  br i1 %exitcond.not, label %15, label %5, !llvm.loop !250

15:                                               ; preds = %5
  %indvars.iv.next19 = add nuw nsw i64 %indvars.iv18, 1
  %exitcond21.not = icmp eq i64 %indvars.iv.next19, 3
  br i1 %exitcond21.not, label %16, label %1, !llvm.loop !251

16:                                               ; preds = %15
  store i8 2, ptr getelementptr inbounds nuw (i8, ptr @exponent_group_tab, i64 7), align 1, !tbaa !26
  ret void
}